target datalayout = "e-m:e-p270:32:32-p271:32:32-p272:64:64-i64:64-i128:128-f80:128-n8:16:32:64-S128"
target triple = "x86_64-pc-linux-gnu"

%struct.expert_field = type { i32, i32 }

@hf_tcpip_snn_timestamp = internal global i32 0, align 4
@hf_tcpip_snn_date = internal global i32 0, align 4
@hf_tcpip_snn_time = internal global i32 0, align 4
@ei_mal_tcpip_snn = internal global %struct.expert_field zeroinitializer, align 4

; Function Attrs: null_pointer_is_valid sspstrong uwtable
define internal i32 @dissect_tcpip_snn(ptr noundef %0, ptr noundef %1, ptr noundef %2, ptr noundef %3, i32 noundef %4, i32 noundef %5) #0 {
  %7 = alloca i32, align 4
  %8 = alloca ptr, align 8
  %9 = alloca ptr, align 8
  %10 = alloca ptr, align 8
  %11 = alloca ptr, align 8
  %12 = alloca i32, align 4
  %13 = alloca i32, align 4
  store ptr %0, ptr %8, align 8
  store ptr %1, ptr %9, align 8
  store ptr %2, ptr %10, align 8
  store ptr %3, ptr %11, align 8
  store i32 %4, ptr %12, align 4
  store i32 %5, ptr %13, align 4
  %14 = load i32, ptr %13, align 4
  %15 = icmp slt i32 %14, 6
  br i1 %15, label %16, label %21

16:                                               ; preds = %6
  %17 = load ptr, ptr %8, align 8
  %18 = load ptr, ptr %10, align 8
  %19 = call ptr @expert_add_info(ptr noundef %17, ptr noundef %18, ptr noundef @ei_mal_tcpip_snn)
  %20 = load i32, ptr %13, align 4
  store i32 %20, ptr %7, align 4
  br label %29

21:                                               ; preds = %6
  %22 = load ptr, ptr %9, align 8
  %23 = load ptr, ptr %11, align 8
  %24 = load ptr, ptr %8, align 8
  %25 = load i32, ptr %12, align 4
  %26 = load i32, ptr @hf_tcpip_snn_timestamp, align 4
  %27 = load i32, ptr @hf_tcpip_snn_date, align 4
  %28 = load i32, ptr @hf_tcpip_snn_time, align 4
  call void @dissect_cipsafety_snn(ptr noundef %22, ptr noundef %23, ptr noundef %24, i32 noundef %25, i32 noundef %26, i32 noundef %27, i32 noundef %28)
  store i32 6, ptr %7, align 4
  br label %29

29:                                               ; preds = %21, %16
  %30 = load i32, ptr %7, align 4
  ret i32 %30
}