; Function Attrs: null_pointer_is_valid sspstrong uwtable
define internal range(i32 -2147483648, 7) i32 @dissect_tcpip_snn(ptr noundef %0, ptr noundef %1, ptr noundef %2, ptr noundef %3, i32 noundef %4, i32 noundef %5) #0 {
  %7 = icmp slt i32 %5, 6
  br i1 %7, label %8, label %10

8:                                                ; preds = %6
  %9 = tail call ptr @expert_add_info(ptr noundef %0, ptr noundef %2, ptr noundef nonnull @ei_mal_tcpip_snn)
  br label %14

10:                                               ; preds = %6
  %11 = load i32, ptr @hf_tcpip_snn_timestamp, align 4
  %12 = load i32, ptr @hf_tcpip_snn_date, align 4
  %13 = load i32, ptr @hf_tcpip_snn_time, align 4
  tail call void @dissect_cipsafety_snn(ptr noundef %1, ptr noundef %3, ptr noundef %0, i32 noundef %4, i32 noundef %11, i32 noundef %12, i32 noundef %13)
  br label %14

14:                                               ; preds = %10, %8
  %.0 = phi i32 [ %5, %8 ], [ 6, %10 ]
  ret i32 %.0
}